target datalayout = "e-m:e-p270:32:32-p271:32:32-p272:64:64-i64:64-i128:128-f80:128-n8:16:32:64-S128"
target triple = "x86_64-unknown-linux-gnu"

@.str = private unnamed_addr constant [3 x i8] c" \09\00", align 1
@.str.12 = private unnamed_addr constant [4 x i8] c" \09\0D\00", align 1

; Function Attrs: mustprogress uwtable
define internal noundef zeroext i1 @_ZN7tinyobjL9parseRealEPPKcPf(ptr noundef %token, ptr noundef %out) #2 {
entry:
  %token.addr = alloca ptr, align 8
  %out.addr = alloca ptr, align 8
  %end = alloca ptr, align 8
  %val = alloca double, align 8
  %ret = alloca i8, align 1
  %f = alloca float, align 4
  store ptr %token, ptr %token.addr, align 8
  store ptr %out, ptr %out.addr, align 8
  %0 = load ptr, ptr %token.addr, align 8
  %1 = load ptr, ptr %0, align 8
  %call = call i64 @strspn(ptr noundef %1, ptr noundef @.str) #15
  %2 = load ptr, ptr %token.addr, align 8
  %3 = load ptr, ptr %2, align 8
  %add.ptr = getelementptr inbounds i8, ptr %3, i64 %call
  store ptr %add.ptr, ptr %2, align 8
  %4 = load ptr, ptr %token.addr, align 8
  %5 = load ptr, ptr %4, align 8
  %6 = load ptr, ptr %token.addr, align 8
  %7 = load ptr, ptr %6, align 8
  %call1 = call i64 @strcspn(ptr noundef %7, ptr noundef @.str.12) #15
  %add.ptr2 = getelementptr inbounds i8, ptr %5, i64 %call1
  store ptr %add.ptr2, ptr %end, align 8
  %8 = load ptr, ptr %token.addr, align 8
  %9 = load ptr, ptr %8, align 8
  %10 = load ptr, ptr %end, align 8
  %call3 = call noundef zeroext i1 @_ZN7tinyobjL14tryParseDoubleEPKcS1_Pd(ptr noundef %9, ptr noundef %10, ptr noundef %val)
  %frombool = zext i1 %call3 to i8
  store i8 %frombool, ptr %ret, align 1
  %11 = load i8, ptr %ret, align 1
  %tobool = trunc i8 %11 to i1
  br i1 %tobool, label %if.then, label %if.end

if.then:                                          ; preds = %entry
  %12 = load double, ptr %val, align 8
  %conv = fptrunc double %12 to float
  store float %conv, ptr %f, align 4
  %13 = load float, ptr %f, align 4
  %14 = load ptr, ptr %out.addr, align 8
  store float %13, ptr %14, align 4
  br label %if.end

if.end:                                           ; preds = %if.then, %entry
  %15 = load ptr, ptr %end, align 8
  %16 = load ptr, ptr %token.addr, align 8
  store ptr %15, ptr %16, align 8
  %17 = load i8, ptr %ret, align 1
  %tobool4 = trunc i8 %17 to i1
  ret i1 %tobool4
}

; Function Attrs: mustprogress uwtable
define internal noundef float @_ZN7tinyobjL9parseRealEPPKcd(ptr noundef %token, double noundef %default_value) #2 {
entry:
  %token.addr = alloca ptr, align 8
  %default_value.addr = alloca double, align 8
  %end = alloca ptr, align 8
  %val = alloca double, align 8
  %f = alloca float, align 4
  store ptr %token, ptr %token.addr, align 8
  store double %default_value, ptr %default_value.addr, align 8
  %0 = load ptr, ptr %token.addr, align 8
  %1 = load ptr, ptr %0, align 8
  %call = call i64 @strspn(ptr noundef %1, ptr noundef @.str) #15
  %2 = load ptr, ptr %token.addr, align 8
  %3 = load ptr, ptr %2, align 8
  %add.ptr = getelementptr inbounds i8, ptr %3, i64 %call
  store ptr %add.ptr, ptr %2, align 8
  %4 = load ptr, ptr %token.addr, align 8
  %5 = load ptr, ptr %4, align 8
  %6 = load ptr, ptr %token.addr, align 8
  %7 = load ptr, ptr %6, align 8
  %call1 = call i64 @strcspn(ptr noundef %7, ptr noundef @.str.12) #15
  %add.ptr2 = getelementptr inbounds i8, ptr %5, i64 %call1
  store ptr %add.ptr2, ptr %end, align 8
  %8 = load double, ptr %default_value.addr, align 8
  store double %8, ptr %val, align 8
  %9 = load ptr, ptr %token.addr, align 8
  %10 = load ptr, ptr %9, align 8
  %11 = load ptr, ptr %end, align 8
  %call3 = call noundef zeroext i1 @_ZN7tinyobjL14tryParseDoubleEPKcS1_Pd(ptr noundef %10, ptr noundef %11, ptr noundef %val)
  %12 = load double, ptr %val, align 8
  %conv = fptrunc double %12 to float
  store float %conv, ptr %f, align 4
  %13 = load ptr, ptr %end, align 8
  %14 = load ptr, ptr %token.addr, align 8
  store ptr %13, ptr %14, align 8
  %15 = load float, ptr %f, align 4
  ret float %15
}

; Function Attrs: mustprogress uwtable
define internal noundef zeroext i1 @_ZN7tinyobjL20parseVertexWithColorEPfS0_S0_S0_S0_S0_PPKcddd(ptr noundef %x, ptr noundef %y, ptr noundef %z, ptr noundef %r, ptr noundef %g, ptr noundef %b, ptr noundef %token, double noundef %default_x, double noundef %default_y, double noundef %default_z) #2 {
entry:
  %x.addr = alloca ptr, align 8
  %y.addr = alloca ptr, align 8
  %z.addr = alloca ptr, align 8
  %r.addr = alloca ptr, align 8
  %g.addr = alloca ptr, align 8
  %b.addr = alloca ptr, align 8
  %token.addr = alloca ptr, align 8
  %default_x.addr = alloca double, align 8
  %default_y.addr = alloca double, align 8
  %default_z.addr = alloca double, align 8
  %found_color = alloca i8, align 1
  store ptr %x, ptr %x.addr, align 8
  store ptr %y, ptr %y.addr, align 8
  store ptr %z, ptr %z.addr, align 8
  store ptr %r, ptr %r.addr, align 8
  store ptr %g, ptr %g.addr, align 8
  store ptr %b, ptr %b.addr, align 8
  store ptr %token, ptr %token.addr, align 8
  store double %default_x, ptr %default_x.addr, align 8
  store double %default_y, ptr %default_y.addr, align 8
  store double %default_z, ptr %default_z.addr, align 8
  %0 = load ptr, ptr %token.addr, align 8
  %1 = load double, ptr %default_x.addr, align 8
  %call = call noundef float @_ZN7tinyobjL9parseRealEPPKcd(ptr noundef %0, double noundef %1)
  %2 = load ptr, ptr %x.addr, align 8
  store float %call, ptr %2, align 4
  %3 = load ptr, ptr %token.addr, align 8
  %4 = load double, ptr %default_y.addr, align 8
  %call1 = call noundef float @_ZN7tinyobjL9parseRealEPPKcd(ptr noundef %3, double noundef %4)
  %5 = load ptr, ptr %y.addr, align 8
  store float %call1, ptr %5, align 4
  %6 = load ptr, ptr %token.addr, align 8
  %7 = load double, ptr %default_z.addr, align 8
  %call2 = call noundef float @_ZN7tinyobjL9parseRealEPPKcd(ptr noundef %6, double noundef %7)
  %8 = load ptr, ptr %z.addr, align 8
  store float %call2, ptr %8, align 4
  %9 = load ptr, ptr %token.addr, align 8
  %10 = load ptr, ptr %r.addr, align 8
  %call3 = call noundef zeroext i1 @_ZN7tinyobjL9parseRealEPPKcPf(ptr noundef %9, ptr noundef %10)
  br i1 %call3, label %land.lhs.true, label %land.end

land.lhs.true:                                    ; preds = %entry
  %11 = load ptr, ptr %token.addr, align 8
  %12 = load ptr, ptr %g.addr, align 8
  %call4 = call noundef zeroext i1 @_ZN7tinyobjL9parseRealEPPKcPf(ptr noundef %11, ptr noundef %12)
  br i1 %call4, label %land.rhs, label %land.end

land.rhs:                                         ; preds = %land.lhs.true
  %13 = load ptr, ptr %token.addr, align 8
  %14 = load ptr, ptr %b.addr, align 8
  %call5 = call noundef zeroext i1 @_ZN7tinyobjL9parseRealEPPKcPf(ptr noundef %13, ptr noundef %14)
  br label %land.end

land.end:                                         ; preds = %land.rhs, %land.lhs.true, %entry
  %15 = phi i1 [ false, %land.lhs.true ], [ false, %entry ], [ %call5, %land.rhs ]
  %frombool = zext i1 %15 to i8
  store i8 %frombool, ptr %found_color, align 1
  %16 = load i8, ptr %found_color, align 1
  %tobool = trunc i8 %16 to i1
  br i1 %tobool, label %if.end, label %if.then

if.then:                                          ; preds = %land.end
  %17 = load ptr, ptr %b.addr, align 8
  store float 1.000000e+00, ptr %17, align 4
  %18 = load ptr, ptr %g.addr, align 8
  store float 1.000000e+00, ptr %18, align 4
  %19 = load ptr, ptr %r.addr, align 8
  store float 1.000000e+00, ptr %19, align 4
  br label %if.end

if.end:                                           ; preds = %if.then, %land.end
  %20 = load i8, ptr %found_color, align 1
  %tobool6 = trunc i8 %20 to i1
  ret i1 %tobool6
}