; Function Attrs: mustprogress uwtable
define internal fastcc noundef zeroext i1 @_ZN7tinyobjL20parseVertexWithColorEPfS0_S0_S0_S0_S0_PPKcddd(ptr nocapture noundef writeonly %x, ptr nocapture noundef writeonly %y, ptr nocapture noundef writeonly %z, ptr nocapture noundef writeonly %r, ptr nocapture noundef writeonly %g, ptr nocapture noundef writeonly %b, ptr nocapture noundef %token) unnamed_addr #3 {
entry:
  %val.i40 = alloca double, align 8
  %val.i31 = alloca double, align 8
  %val.i24 = alloca double, align 8
  %val.i17 = alloca double, align 8
  %val.i10 = alloca double, align 8
  %val.i = alloca double, align 8
  call void @llvm.lifetime.start.p0(i64 8, ptr nonnull %val.i)
  %0 = load ptr, ptr %token, align 8
  %call.i = tail call i64 @strspn(ptr noundef %0, ptr noundef nonnull @.str) #25
  %add.ptr.i = getelementptr inbounds i8, ptr %0, i64 %call.i
  store ptr %add.ptr.i, ptr %token, align 8
  %call1.i = tail call i64 @strcspn(ptr noundef %add.ptr.i, ptr noundef nonnull @.str.12) #25
  %add.ptr2.i = getelementptr inbounds i8, ptr %add.ptr.i, i64 %call1.i
  store double 0.000000e+00, ptr %val.i, align 8
  %call3.i = call fastcc noundef zeroext i1 @_ZN7tinyobjL14tryParseDoubleEPKcS1_Pd(ptr noundef %add.ptr.i, ptr noundef %add.ptr2.i, ptr noundef nonnull %val.i)
  %1 = load double, ptr %val.i, align 8
  %conv.i = fptrunc double %1 to float
  store ptr %add.ptr2.i, ptr %token, align 8
  call void @llvm.lifetime.end.p0(i64 8, ptr nonnull %val.i)
  store float %conv.i, ptr %x, align 4
  call void @llvm.lifetime.start.p0(i64 8, ptr nonnull %val.i10)
  %2 = load ptr, ptr %token, align 8
  %call.i11 = tail call i64 @strspn(ptr noundef %2, ptr noundef nonnull @.str) #25
  %add.ptr.i12 = getelementptr inbounds i8, ptr %2, i64 %call.i11
  store ptr %add.ptr.i12, ptr %token, align 8
  %call1.i13 = tail call i64 @strcspn(ptr noundef %add.ptr.i12, ptr noundef nonnull @.str.12) #25
  %add.ptr2.i14 = getelementptr inbounds i8, ptr %add.ptr.i12, i64 %call1.i13
  store double 0.000000e+00, ptr %val.i10, align 8
  %call3.i15 = call fastcc noundef zeroext i1 @_ZN7tinyobjL14tryParseDoubleEPKcS1_Pd(ptr noundef %add.ptr.i12, ptr noundef %add.ptr2.i14, ptr noundef nonnull %val.i10)
  %3 = load double, ptr %val.i10, align 8
  %conv.i16 = fptrunc double %3 to float
  store ptr %add.ptr2.i14, ptr %token, align 8
  call void @llvm.lifetime.end.p0(i64 8, ptr nonnull %val.i10)
  store float %conv.i16, ptr %y, align 4
  call void @llvm.lifetime.start.p0(i64 8, ptr nonnull %val.i17)
  %4 = load ptr, ptr %token, align 8
  %call.i18 = tail call i64 @strspn(ptr noundef %4, ptr noundef nonnull @.str) #25
  %add.ptr.i19 = getelementptr inbounds i8, ptr %4, i64 %call.i18
  store ptr %add.ptr.i19, ptr %token, align 8
  %call1.i20 = tail call i64 @strcspn(ptr noundef %add.ptr.i19, ptr noundef nonnull @.str.12) #25
  %add.ptr2.i21 = getelementptr inbounds i8, ptr %add.ptr.i19, i64 %call1.i20
  store double 0.000000e+00, ptr %val.i17, align 8
  %call3.i22 = call fastcc noundef zeroext i1 @_ZN7tinyobjL14tryParseDoubleEPKcS1_Pd(ptr noundef %add.ptr.i19, ptr noundef %add.ptr2.i21, ptr noundef nonnull %val.i17)
  %5 = load double, ptr %val.i17, align 8
  %conv.i23 = fptrunc double %5 to float
  store ptr %add.ptr2.i21, ptr %token, align 8
  call void @llvm.lifetime.end.p0(i64 8, ptr nonnull %val.i17)
  store float %conv.i23, ptr %z, align 4
  call void @llvm.lifetime.start.p0(i64 8, ptr nonnull %val.i24)
  %6 = load ptr, ptr %token, align 8
  %call.i25 = tail call i64 @strspn(ptr noundef %6, ptr noundef nonnull @.str) #25
  %add.ptr.i26 = getelementptr inbounds i8, ptr %6, i64 %call.i25
  store ptr %add.ptr.i26, ptr %token, align 8
  %call1.i27 = tail call i64 @strcspn(ptr noundef %add.ptr.i26, ptr noundef nonnull @.str.12) #25
  %add.ptr2.i28 = getelementptr inbounds i8, ptr %add.ptr.i26, i64 %call1.i27
  %call3.i29 = call fastcc noundef zeroext i1 @_ZN7tinyobjL14tryParseDoubleEPKcS1_Pd(ptr noundef %add.ptr.i26, ptr noundef %add.ptr2.i28, ptr noundef nonnull %val.i24)
  br i1 %call3.i29, label %land.lhs.true, label %_ZN7tinyobjL9parseRealEPPKcPf.exit

_ZN7tinyobjL9parseRealEPPKcPf.exit:               ; preds = %entry
  store ptr %add.ptr2.i28, ptr %token, align 8
  call void @llvm.lifetime.end.p0(i64 8, ptr nonnull %val.i24)
  br label %if.then

land.lhs.true:                                    ; preds = %entry
  %7 = load double, ptr %val.i24, align 8
  %conv.i30 = fptrunc double %7 to float
  store float %conv.i30, ptr %r, align 4
  store ptr %add.ptr2.i28, ptr %token, align 8
  call void @llvm.lifetime.end.p0(i64 8, ptr nonnull %val.i24)
  call void @llvm.lifetime.start.p0(i64 8, ptr nonnull %val.i31)
  %call.i32 = tail call i64 @strspn(ptr noundef %add.ptr2.i28, ptr noundef nonnull @.str) #25
  %add.ptr.i33 = getelementptr inbounds i8, ptr %add.ptr2.i28, i64 %call.i32
  store ptr %add.ptr.i33, ptr %token, align 8
  %call1.i34 = tail call i64 @strcspn(ptr noundef %add.ptr.i33, ptr noundef nonnull @.str.12) #25
  %add.ptr2.i35 = getelementptr inbounds i8, ptr %add.ptr.i33, i64 %call1.i34
  %call3.i36 = call fastcc noundef zeroext i1 @_ZN7tinyobjL14tryParseDoubleEPKcS1_Pd(ptr noundef %add.ptr.i33, ptr noundef %add.ptr2.i35, ptr noundef nonnull %val.i31)
  br i1 %call3.i36, label %land.rhs, label %_ZN7tinyobjL9parseRealEPPKcPf.exit39

_ZN7tinyobjL9parseRealEPPKcPf.exit39:             ; preds = %land.lhs.true
  store ptr %add.ptr2.i35, ptr %token, align 8
  call void @llvm.lifetime.end.p0(i64 8, ptr nonnull %val.i31)
  br label %if.then

land.rhs:                                         ; preds = %land.lhs.true
  %8 = load double, ptr %val.i31, align 8
  %conv.i38 = fptrunc double %8 to float
  store float %conv.i38, ptr %g, align 4
  store ptr %add.ptr2.i35, ptr %token, align 8
  call void @llvm.lifetime.end.p0(i64 8, ptr nonnull %val.i31)
  call void @llvm.lifetime.start.p0(i64 8, ptr nonnull %val.i40)
  %call.i41 = tail call i64 @strspn(ptr noundef %add.ptr2.i35, ptr noundef nonnull @.str) #25
  %add.ptr.i42 = getelementptr inbounds i8, ptr %add.ptr2.i35, i64 %call.i41
  store ptr %add.ptr.i42, ptr %token, align 8
  %call1.i43 = tail call i64 @strcspn(ptr noundef %add.ptr.i42, ptr noundef nonnull @.str.12) #25
  %add.ptr2.i44 = getelementptr inbounds i8, ptr %add.ptr.i42, i64 %call1.i43
  %call3.i45 = call fastcc noundef zeroext i1 @_ZN7tinyobjL14tryParseDoubleEPKcS1_Pd(ptr noundef %add.ptr.i42, ptr noundef %add.ptr2.i44, ptr noundef nonnull %val.i40)
  br i1 %call3.i45, label %land.end.thread49, label %land.end

land.end.thread49:                                ; preds = %land.rhs
  %9 = load double, ptr %val.i40, align 8
  %conv.i47 = fptrunc double %9 to float
  store float %conv.i47, ptr %b, align 4
  store ptr %add.ptr2.i44, ptr %token, align 8
  call void @llvm.lifetime.end.p0(i64 8, ptr nonnull %val.i40)
  br label %if.end

land.end:                                         ; preds = %land.rhs
  store ptr %add.ptr2.i44, ptr %token, align 8
  call void @llvm.lifetime.end.p0(i64 8, ptr nonnull %val.i40)
  br label %if.then

if.then:                                          ; preds = %_ZN7tinyobjL9parseRealEPPKcPf.exit, %_ZN7tinyobjL9parseRealEPPKcPf.exit39, %land.end
  store float 1.000000e+00, ptr %b, align 4
  store float 1.000000e+00, ptr %g, align 4
  store float 1.000000e+00, ptr %r, align 4
  br label %if.end

if.end:                                           ; preds = %land.end.thread49, %if.then
  %10 = phi i1 [ false, %if.then ], [ true, %land.end.thread49 ]
  ret i1 %10
}